target datalayout = "e-m:e-p270:32:32-p271:32:32-p272:64:64-i64:64-i128:128-f80:128-n8:16:32:64-S128"
target triple = "x86_64-unknown-linux-gnu"

%"class.v8::WeakCallbackInfo" = type { ptr, ptr, ptr, [2 x ptr] }

; Function Attrs: mustprogress nounwind uwtable
define dso_local void @_ZN4node10contextify17ContextifyContext12WeakCallbackERKN2v816WeakCallbackInfoIS1_EE(ptr noundef nonnull align 8 dereferenceable(40) %data) #4 align 2 {
entry:
  %this.addr.i = alloca ptr, align 8
  %data.addr = alloca ptr, align 8
  %context = alloca ptr, align 8
  store ptr %data, ptr %data.addr, align 8
  %0 = load ptr, ptr %data.addr, align 8
  store ptr %0, ptr %this.addr.i, align 8
  %this1.i = load ptr, ptr %this.addr.i, align 8
  %parameter_.i = getelementptr inbounds %"class.v8::WeakCallbackInfo", ptr %this1.i, i32 0, i32 1
  %1 = load ptr, ptr %parameter_.i, align 8
  store ptr %1, ptr %context, align 8
  %2 = load ptr, ptr %context, align 8
  %isnull = icmp eq ptr %2, null
  br i1 %isnull, label %delete.end, label %delete.notnull

delete.notnull:                                   ; preds = %entry
  %vtable = load ptr, ptr %2, align 8
  %vfn = getelementptr inbounds ptr, ptr %vtable, i64 1
  %3 = load ptr, ptr %vfn, align 8
  call void %3(ptr noundef nonnull align 8 dereferenceable(48) %2) #3
  br label %delete.end

delete.end:                                       ; preds = %delete.notnull, %entry
  ret void
}