; Function Attrs: mustprogress nounwind uwtable
define dso_local void @_ZN4node10contextify17ContextifyContext12WeakCallbackERKN2v816WeakCallbackInfoIS1_EE(ptr nocapture noundef nonnull readonly align 8 dereferenceable(40) %data) local_unnamed_addr #3 align 2 {
entry:
  %parameter_.i = getelementptr inbounds i8, ptr %data, i64 8
  %0 = load ptr, ptr %parameter_.i, align 8
  %isnull = icmp eq ptr %0, null
  br i1 %isnull, label %delete.end, label %delete.notnull

delete.notnull:                                   ; preds = %entry
  %vtable = load ptr, ptr %0, align 8
  %vfn = getelementptr inbounds i8, ptr %vtable, i64 8
  %1 = load ptr, ptr %vfn, align 8
  tail call void %1(ptr noundef nonnull align 8 dereferenceable(48) %0) #21
  br label %delete.end

delete.end:                                       ; preds = %delete.notnull, %entry
  ret void
}